target datalayout = "e-m:e-p270:32:32-p271:32:32-p272:64:64-i64:64-i128:128-f80:128-n8:16:32:64-S128"
target triple = "x86_64-unknown-linux-gnu"

%"class.cvc5::internal::prop::ProofPostprocessCallback" = type { %"class.cvc5::internal::EnvObj", %"class.cvc5::internal::ProofNodeUpdaterCallback", ptr, %"class.std::map" }
%"class.cvc5::internal::EnvObj" = type { ptr, ptr }
%"class.cvc5::internal::ProofNodeUpdaterCallback" = type { ptr }
%"class.std::map" = type { %"class.std::_Rb_tree" }
%"class.std::_Rb_tree" = type { %"struct.std::_Rb_tree<cvc5::internal::NodeTemplate<true>, std::pair<const cvc5::internal::NodeTemplate<true>, std::shared_ptr<cvc5::internal::ProofNode>>, std::_Select1st<std::pair<const cvc5::internal::NodeTemplate<true>, std::shared_ptr<cvc5::internal::ProofNode>>>, std::less<cvc5::internal::NodeTemplate<true>>>::_Rb_tree_impl" }
%"struct.std::_Rb_tree<cvc5::internal::NodeTemplate<true>, std::pair<const cvc5::internal::NodeTemplate<true>, std::shared_ptr<cvc5::internal::ProofNode>>, std::_Select1st<std::pair<const cvc5::internal::NodeTemplate<true>, std::shared_ptr<cvc5::internal::ProofNode>>>, std::less<cvc5::internal::NodeTemplate<true>>>::_Rb_tree_impl" = type { %"struct.std::_Rb_tree_key_compare", %"struct.std::_Rb_tree_header" }
%"struct.std::_Rb_tree_key_compare" = type { %"struct.std::less" }
%"struct.std::less" = type { i8 }
%"struct.std::_Rb_tree_header" = type { %"struct.std::_Rb_tree_node_base", i64 }
%"struct.std::_Rb_tree_node_base" = type { i32, ptr, ptr, ptr }
%"class.cvc5::internal::prop::ProofPostprocess" = type { %"class.cvc5::internal::EnvObj", %"class.cvc5::internal::prop::ProofPostprocessCallback" }

@_ZTVN4cvc58internal4prop16ProofPostprocessE = hidden unnamed_addr constant { [4 x ptr] } { [4 x ptr] [ptr null, ptr @_ZTIN4cvc58internal4prop16ProofPostprocessE, ptr @_ZN4cvc58internal4prop16ProofPostprocessD1Ev, ptr @_ZN4cvc58internal4prop16ProofPostprocessD0Ev] }, align 8
@_ZN4cvc58internal4prop24ProofPostprocessCallbackC1ERNS0_3EnvEPNS1_14ProofCnfStreamE = hidden unnamed_addr alias void (ptr, ptr, ptr), ptr @_ZN4cvc58internal4prop24ProofPostprocessCallbackC2ERNS0_3EnvEPNS1_14ProofCnfStreamE

; Function Attrs: mustprogress nounwind uwtable
define linkonce_odr hidden void @_ZN4cvc58internal6EnvObjD2Ev(ptr noundef nonnull align 8 dereferenceable(16) %this) unnamed_addr #4 comdat align 2 {
entry:
  %this.addr = alloca ptr, align 8
  store ptr %this, ptr %this.addr, align 8
  ret void
}

; Function Attrs: mustprogress uwtable
define hidden void @_ZN4cvc58internal4prop16ProofPostprocessC2ERNS0_3EnvEPNS1_14ProofCnfStreamE(ptr noundef nonnull align 8 dereferenceable(96) %this, ptr noundef nonnull align 1 %env, ptr noundef %proofCnfStream) unnamed_addr #5 align 2 personality ptr @__gxx_personality_v0 {
entry:
  %this.addr = alloca ptr, align 8
  %env.addr = alloca ptr, align 8
  %proofCnfStream.addr = alloca ptr, align 8
  %exn.slot = alloca ptr, align 8
  %ehselector.slot = alloca i32, align 4
  store ptr %this, ptr %this.addr, align 8
  store ptr %env, ptr %env.addr, align 8
  store ptr %proofCnfStream, ptr %proofCnfStream.addr, align 8
  %this1 = load ptr, ptr %this.addr, align 8
  %0 = load ptr, ptr %env.addr, align 8
  call void @_ZN4cvc58internal6EnvObjC2ERNS0_3EnvE(ptr noundef nonnull align 8 dereferenceable(16) %this1, ptr noundef nonnull align 1 %0)
  store ptr getelementptr inbounds ({ [4 x ptr] }, ptr @_ZTVN4cvc58internal4prop16ProofPostprocessE, i32 0, i32 0, i32 2), ptr %this1, align 8
  %d_cb = getelementptr inbounds %"class.cvc5::internal::prop::ProofPostprocess", ptr %this1, i32 0, i32 1
  %1 = load ptr, ptr %env.addr, align 8
  %2 = load ptr, ptr %proofCnfStream.addr, align 8
  invoke void @_ZN4cvc58internal4prop24ProofPostprocessCallbackC1ERNS0_3EnvEPNS1_14ProofCnfStreamE(ptr noundef nonnull align 8 dereferenceable(80) %d_cb, ptr noundef nonnull align 1 %1, ptr noundef %2)
          to label %invoke.cont unwind label %lpad

invoke.cont:                                      ; preds = %entry
  ret void

lpad:                                             ; preds = %entry
  %3 = landingpad { ptr, i32 }
          cleanup
  %4 = extractvalue { ptr, i32 } %3, 0
  store ptr %4, ptr %exn.slot, align 8
  %5 = extractvalue { ptr, i32 } %3, 1
  store i32 %5, ptr %ehselector.slot, align 4
  call void @_ZN4cvc58internal6EnvObjD2Ev(ptr noundef nonnull align 8 dereferenceable(16) %this1) #3
  br label %eh.resume

eh.resume:                                        ; preds = %lpad
  %exn = load ptr, ptr %exn.slot, align 8
  %sel = load i32, ptr %ehselector.slot, align 4
  %lpad.val = insertvalue { ptr, i32 } poison, ptr %exn, 0
  %lpad.val2 = insertvalue { ptr, i32 } %lpad.val, i32 %sel, 1
  resume { ptr, i32 } %lpad.val2
}